target datalayout = "e-m:e-p270:32:32-p271:32:32-p272:64:64-i64:64-i128:128-f80:128-n8:16:32:64-S128"
target triple = "x86_64-pc-linux-gnu"

%struct.forward = type { %struct.slurm_node_alias_addrs_t, i16, i16, ptr, i32, i16, i16 }
%struct.slurm_node_alias_addrs_t = type { i64, ptr, ptr, i32, ptr }
%struct.sockaddr_storage = type { i16, [118 x i8], i64 }
%struct.slurm_msg = type { %struct.sockaddr_storage, ptr, i32, i32, i32, i8, i32, i8, i32, ptr, ptr, i32, ptr, ptr, i16, i8, i16, i16, %struct.forward, ptr, %struct.sockaddr_storage, ptr }
%struct.network_callerid_msg = type { [16 x i8], [16 x i8], i32, i32, i32 }

; Function Attrs: nounwind uwtable
define internal void @_pack_network_callerid_msg(ptr noundef %0, ptr noundef %1) #0 {
  %3 = alloca ptr, align 8
  %4 = alloca ptr, align 8
  %5 = alloca ptr, align 8
  store ptr %0, ptr %3, align 8
  store ptr %1, ptr %4, align 8
  call void @llvm.lifetime.start.p0(i64 8, ptr %5) #6
  %6 = load ptr, ptr %3, align 8
  %7 = getelementptr inbounds nuw %struct.slurm_msg, ptr %6, i32 0, i32 13
  %8 = load ptr, ptr %7, align 8
  store ptr %8, ptr %5, align 8
  %9 = load ptr, ptr %3, align 8
  %10 = getelementptr inbounds nuw %struct.slurm_msg, ptr %9, i32 0, i32 17
  %11 = load i16, ptr %10, align 2
  %12 = zext i16 %11 to i32
  %13 = icmp sge i32 %12, 10240
  br i1 %13, label %14, label %35

14:                                               ; preds = %2
  %15 = load ptr, ptr %5, align 8
  %16 = getelementptr inbounds nuw %struct.network_callerid_msg, ptr %15, i32 0, i32 0
  %17 = getelementptr inbounds [16 x i8], ptr %16, i64 0, i64 0
  %18 = load ptr, ptr %4, align 8
  call void @packmem(ptr noundef %17, i32 noundef 16, ptr noundef %18)
  %19 = load ptr, ptr %5, align 8
  %20 = getelementptr inbounds nuw %struct.network_callerid_msg, ptr %19, i32 0, i32 1
  %21 = getelementptr inbounds [16 x i8], ptr %20, i64 0, i64 0
  %22 = load ptr, ptr %4, align 8
  call void @packmem(ptr noundef %21, i32 noundef 16, ptr noundef %22)
  %23 = load ptr, ptr %5, align 8
  %24 = getelementptr inbounds nuw %struct.network_callerid_msg, ptr %23, i32 0, i32 2
  %25 = load i32, ptr %24, align 4
  %26 = load ptr, ptr %4, align 8
  call void @pack32(i32 noundef %25, ptr noundef %26)
  %27 = load ptr, ptr %5, align 8
  %28 = getelementptr inbounds nuw %struct.network_callerid_msg, ptr %27, i32 0, i32 3
  %29 = load i32, ptr %28, align 4
  %30 = load ptr, ptr %4, align 8
  call void @pack32(i32 noundef %29, ptr noundef %30)
  %31 = load ptr, ptr %5, align 8
  %32 = getelementptr inbounds nuw %struct.network_callerid_msg, ptr %31, i32 0, i32 4
  %33 = load i32, ptr %32, align 4
  %34 = load ptr, ptr %4, align 8
  call void @pack32(i32 noundef %33, ptr noundef %34)
  br label %35

35:                                               ; preds = %14, %2
  call void @llvm.lifetime.end.p0(i64 8, ptr %5) #6
  ret void
}