; Function Attrs: nounwind uwtable
define internal fastcc void @_pack_network_callerid_msg(ptr noundef readonly captures(none) %0, ptr noundef %1) unnamed_addr #0 {
  %3 = getelementptr inbounds nuw i8, ptr %0, i64 214
  %4 = load i16, ptr %3, align 2
  %5 = icmp ugt i16 %4, 10239
  br i1 %5, label %6, label %16

6:                                                ; preds = %2
  %7 = getelementptr inbounds nuw i8, ptr %0, i64 200
  %8 = load ptr, ptr %7, align 8
  tail call void @packmem(ptr noundef %8, i32 noundef 16, ptr noundef %1) #7
  %9 = getelementptr inbounds nuw i8, ptr %8, i64 16
  tail call void @packmem(ptr noundef nonnull %9, i32 noundef 16, ptr noundef %1) #7
  %10 = getelementptr inbounds nuw i8, ptr %8, i64 32
  %11 = load i32, ptr %10, align 4
  tail call void @pack32(i32 noundef %11, ptr noundef %1) #7
  %12 = getelementptr inbounds nuw i8, ptr %8, i64 36
  %13 = load i32, ptr %12, align 4
  tail call void @pack32(i32 noundef %13, ptr noundef %1) #7
  %14 = getelementptr inbounds nuw i8, ptr %8, i64 40
  %15 = load i32, ptr %14, align 4
  tail call void @pack32(i32 noundef %15, ptr noundef %1) #7
  br label %16

16:                                               ; preds = %6, %2
  ret void
}